target datalayout = "e-m:e-p270:32:32-p271:32:32-p272:64:64-i64:64-i128:128-f80:128-n8:16:32:64-S128"
target triple = "x86_64-pc-linux-gnu"

@.str.141 = private unnamed_addr constant [8 x i8] c"__doc__\00", align 1
@.str.233 = private unnamed_addr constant [14 x i8] c"pyexpat.model\00", align 1
@.str.234 = private unnamed_addr constant [55 x i8] c"Constants used to interpret content model information.\00", align 1
@.str.235 = private unnamed_addr constant [16 x i8] c"XML_CTYPE_EMPTY\00", align 1
@.str.236 = private unnamed_addr constant [14 x i8] c"XML_CTYPE_ANY\00", align 1
@.str.237 = private unnamed_addr constant [16 x i8] c"XML_CTYPE_MIXED\00", align 1
@.str.238 = private unnamed_addr constant [15 x i8] c"XML_CTYPE_NAME\00", align 1
@.str.239 = private unnamed_addr constant [17 x i8] c"XML_CTYPE_CHOICE\00", align 1
@.str.240 = private unnamed_addr constant [14 x i8] c"XML_CTYPE_SEQ\00", align 1
@.str.241 = private unnamed_addr constant [16 x i8] c"XML_CQUANT_NONE\00", align 1
@.str.242 = private unnamed_addr constant [15 x i8] c"XML_CQUANT_OPT\00", align 1
@.str.243 = private unnamed_addr constant [15 x i8] c"XML_CQUANT_REP\00", align 1
@.str.244 = private unnamed_addr constant [16 x i8] c"XML_CQUANT_PLUS\00", align 1

; Function Attrs: nounwind uwtable
define internal i32 @add_model_module(ptr noundef %0) #0 {
  %2 = alloca i32, align 4
  %3 = alloca ptr, align 8
  %4 = alloca ptr, align 8
  %5 = alloca i32, align 4
  store ptr %0, ptr %3, align 8, !tbaa !3
  call void @llvm.lifetime.start.p0(i64 8, ptr %4) #7
  %6 = load ptr, ptr %3, align 8, !tbaa !3
  %7 = call ptr @add_submodule(ptr noundef %6, ptr noundef @.str.233)
  store ptr %7, ptr %4, align 8, !tbaa !3
  %8 = load ptr, ptr %4, align 8, !tbaa !3
  %9 = icmp eq ptr %8, null
  br i1 %9, label %10, label %11

10:                                               ; preds = %1
  store i32 -1, ptr %2, align 4
  store i32 1, ptr %5, align 4
  br label %97

11:                                               ; preds = %1
  %12 = load ptr, ptr %4, align 8, !tbaa !3
  %13 = call i32 @PyModule_AddStringConstant(ptr noundef %12, ptr noundef @.str.141, ptr noundef @.str.234)
  %14 = icmp slt i32 %13, 0
  br i1 %14, label %15, label %16

15:                                               ; preds = %11
  store i32 -1, ptr %2, align 4
  store i32 1, ptr %5, align 4
  br label %97

16:                                               ; preds = %11
  br label %17

17:                                               ; preds = %16
  %18 = load ptr, ptr %4, align 8, !tbaa !3
  %19 = call i32 @PyModule_AddIntConstant(ptr noundef %18, ptr noundef @.str.235, i64 noundef 1)
  %20 = icmp slt i32 %19, 0
  br i1 %20, label %21, label %22

21:                                               ; preds = %17
  store i32 -1, ptr %2, align 4
  store i32 1, ptr %5, align 4
  br label %97

22:                                               ; preds = %17
  br label %23

23:                                               ; preds = %22
  br label %24

24:                                               ; preds = %23
  br label %25

25:                                               ; preds = %24
  %26 = load ptr, ptr %4, align 8, !tbaa !3
  %27 = call i32 @PyModule_AddIntConstant(ptr noundef %26, ptr noundef @.str.236, i64 noundef 2)
  %28 = icmp slt i32 %27, 0
  br i1 %28, label %29, label %30

29:                                               ; preds = %25
  store i32 -1, ptr %2, align 4
  store i32 1, ptr %5, align 4
  br label %97

30:                                               ; preds = %25
  br label %31

31:                                               ; preds = %30
  br label %32

32:                                               ; preds = %31
  br label %33

33:                                               ; preds = %32
  %34 = load ptr, ptr %4, align 8, !tbaa !3
  %35 = call i32 @PyModule_AddIntConstant(ptr noundef %34, ptr noundef @.str.237, i64 noundef 3)
  %36 = icmp slt i32 %35, 0
  br i1 %36, label %37, label %38

37:                                               ; preds = %33
  store i32 -1, ptr %2, align 4
  store i32 1, ptr %5, align 4
  br label %97

38:                                               ; preds = %33
  br label %39

39:                                               ; preds = %38
  br label %40

40:                                               ; preds = %39
  br label %41

41:                                               ; preds = %40
  %42 = load ptr, ptr %4, align 8, !tbaa !3
  %43 = call i32 @PyModule_AddIntConstant(ptr noundef %42, ptr noundef @.str.238, i64 noundef 4)
  %44 = icmp slt i32 %43, 0
  br i1 %44, label %45, label %46

45:                                               ; preds = %41
  store i32 -1, ptr %2, align 4
  store i32 1, ptr %5, align 4
  br label %97

46:                                               ; preds = %41
  br label %47

47:                                               ; preds = %46
  br label %48

48:                                               ; preds = %47
  br label %49

49:                                               ; preds = %48
  %50 = load ptr, ptr %4, align 8, !tbaa !3
  %51 = call i32 @PyModule_AddIntConstant(ptr noundef %50, ptr noundef @.str.239, i64 noundef 5)
  %52 = icmp slt i32 %51, 0
  br i1 %52, label %53, label %54

53:                                               ; preds = %49
  store i32 -1, ptr %2, align 4
  store i32 1, ptr %5, align 4
  br label %97

54:                                               ; preds = %49
  br label %55

55:                                               ; preds = %54
  br label %56

56:                                               ; preds = %55
  br label %57

57:                                               ; preds = %56
  %58 = load ptr, ptr %4, align 8, !tbaa !3
  %59 = call i32 @PyModule_AddIntConstant(ptr noundef %58, ptr noundef @.str.240, i64 noundef 6)
  %60 = icmp slt i32 %59, 0
  br i1 %60, label %61, label %62

61:                                               ; preds = %57
  store i32 -1, ptr %2, align 4
  store i32 1, ptr %5, align 4
  br label %97

62:                                               ; preds = %57
  br label %63

63:                                               ; preds = %62
  br label %64

64:                                               ; preds = %63
  br label %65

65:                                               ; preds = %64
  %66 = load ptr, ptr %4, align 8, !tbaa !3
  %67 = call i32 @PyModule_AddIntConstant(ptr noundef %66, ptr noundef @.str.241, i64 noundef 0)
  %68 = icmp slt i32 %67, 0
  br i1 %68, label %69, label %70

69:                                               ; preds = %65
  store i32 -1, ptr %2, align 4
  store i32 1, ptr %5, align 4
  br label %97

70:                                               ; preds = %65
  br label %71

71:                                               ; preds = %70
  br label %72

72:                                               ; preds = %71
  br label %73

73:                                               ; preds = %72
  %74 = load ptr, ptr %4, align 8, !tbaa !3
  %75 = call i32 @PyModule_AddIntConstant(ptr noundef %74, ptr noundef @.str.242, i64 noundef 1)
  %76 = icmp slt i32 %75, 0
  br i1 %76, label %77, label %78

77:                                               ; preds = %73
  store i32 -1, ptr %2, align 4
  store i32 1, ptr %5, align 4
  br label %97

78:                                               ; preds = %73
  br label %79

79:                                               ; preds = %78
  br label %80

80:                                               ; preds = %79
  br label %81

81:                                               ; preds = %80
  %82 = load ptr, ptr %4, align 8, !tbaa !3
  %83 = call i32 @PyModule_AddIntConstant(ptr noundef %82, ptr noundef @.str.243, i64 noundef 2)
  %84 = icmp slt i32 %83, 0
  br i1 %84, label %85, label %86

85:                                               ; preds = %81
  store i32 -1, ptr %2, align 4
  store i32 1, ptr %5, align 4
  br label %97

86:                                               ; preds = %81
  br label %87

87:                                               ; preds = %86
  br label %88

88:                                               ; preds = %87
  br label %89

89:                                               ; preds = %88
  %90 = load ptr, ptr %4, align 8, !tbaa !3
  %91 = call i32 @PyModule_AddIntConstant(ptr noundef %90, ptr noundef @.str.244, i64 noundef 3)
  %92 = icmp slt i32 %91, 0
  br i1 %92, label %93, label %94

93:                                               ; preds = %89
  store i32 -1, ptr %2, align 4
  store i32 1, ptr %5, align 4
  br label %97

94:                                               ; preds = %89
  br label %95

95:                                               ; preds = %94
  br label %96

96:                                               ; preds = %95
  store i32 0, ptr %2, align 4
  store i32 1, ptr %5, align 4
  br label %97

97:                                               ; preds = %96, %93, %85, %77, %69, %61, %53, %45, %37, %29, %21, %15, %10
  call void @llvm.lifetime.end.p0(i64 8, ptr %4) #7
  %98 = load i32, ptr %2, align 4
  ret i32 %98
}