; Function Attrs: nounwind uwtable
define internal fastcc range(i32 -1, 1) i32 @add_model_module(ptr noundef %0) unnamed_addr #0 {
  %2 = tail call fastcc ptr @add_submodule(ptr noundef %0, ptr noundef nonnull @.str.233)
  %3 = icmp eq ptr %2, null
  br i1 %3, label %36, label %4

4:                                                ; preds = %1
  %5 = tail call i32 @PyModule_AddStringConstant(ptr noundef nonnull %2, ptr noundef nonnull @.str.141, ptr noundef nonnull @.str.234) #8
  %6 = icmp slt i32 %5, 0
  br i1 %6, label %36, label %7

7:                                                ; preds = %4
  %8 = tail call i32 @PyModule_AddIntConstant(ptr noundef nonnull %2, ptr noundef nonnull @.str.235, i64 noundef 1) #8
  %9 = icmp slt i32 %8, 0
  br i1 %9, label %36, label %10

10:                                               ; preds = %7
  %11 = tail call i32 @PyModule_AddIntConstant(ptr noundef nonnull %2, ptr noundef nonnull @.str.236, i64 noundef 2) #8
  %12 = icmp slt i32 %11, 0
  br i1 %12, label %36, label %13

13:                                               ; preds = %10
  %14 = tail call i32 @PyModule_AddIntConstant(ptr noundef nonnull %2, ptr noundef nonnull @.str.237, i64 noundef 3) #8
  %15 = icmp slt i32 %14, 0
  br i1 %15, label %36, label %16

16:                                               ; preds = %13
  %17 = tail call i32 @PyModule_AddIntConstant(ptr noundef nonnull %2, ptr noundef nonnull @.str.238, i64 noundef 4) #8
  %18 = icmp slt i32 %17, 0
  br i1 %18, label %36, label %19

19:                                               ; preds = %16
  %20 = tail call i32 @PyModule_AddIntConstant(ptr noundef nonnull %2, ptr noundef nonnull @.str.239, i64 noundef 5) #8
  %21 = icmp slt i32 %20, 0
  br i1 %21, label %36, label %22

22:                                               ; preds = %19
  %23 = tail call i32 @PyModule_AddIntConstant(ptr noundef nonnull %2, ptr noundef nonnull @.str.240, i64 noundef 6) #8
  %24 = icmp slt i32 %23, 0
  br i1 %24, label %36, label %25

25:                                               ; preds = %22
  %26 = tail call i32 @PyModule_AddIntConstant(ptr noundef nonnull %2, ptr noundef nonnull @.str.241, i64 noundef 0) #8
  %27 = icmp slt i32 %26, 0
  br i1 %27, label %36, label %28

28:                                               ; preds = %25
  %29 = tail call i32 @PyModule_AddIntConstant(ptr noundef nonnull %2, ptr noundef nonnull @.str.242, i64 noundef 1) #8
  %30 = icmp slt i32 %29, 0
  br i1 %30, label %36, label %31

31:                                               ; preds = %28
  %32 = tail call i32 @PyModule_AddIntConstant(ptr noundef nonnull %2, ptr noundef nonnull @.str.243, i64 noundef 2) #8
  %33 = icmp slt i32 %32, 0
  br i1 %33, label %36, label %34

34:                                               ; preds = %31
  %35 = tail call i32 @PyModule_AddIntConstant(ptr noundef nonnull %2, ptr noundef nonnull @.str.244, i64 noundef 3) #8
  %.lobit = ashr i32 %35, 31
  br label %36

36:                                               ; preds = %34, %31, %28, %25, %22, %19, %16, %13, %10, %7, %4, %1
  %.0 = phi i32 [ -1, %1 ], [ -1, %4 ], [ -1, %7 ], [ -1, %10 ], [ -1, %13 ], [ -1, %16 ], [ -1, %19 ], [ -1, %22 ], [ -1, %25 ], [ -1, %28 ], [ -1, %31 ], [ %.lobit, %34 ]
  ret i32 %.0
}